target datalayout = "e-m:e-p270:32:32-p271:32:32-p272:64:64-i64:64-i128:128-f80:128-n8:16:32:64-S128"
target triple = "x86_64-pc-linux-gnu"

%"class.icu_77::ParseData" = type { %"class.icu_77::SymbolTable", ptr, ptr, ptr }
%"class.icu_77::SymbolTable" = type { ptr }
%"class.icu_77::Hashtable" = type { ptr, %struct.UHashtable }
%struct.UHashtable = type { ptr, ptr, ptr, ptr, ptr, ptr, i32, i32, i32, i32, float, float, i8, i8 }
%"class.icu_77::TransliterationRuleData" = type { [8 x i8], %"class.icu_77::TransliterationRuleSet", %"class.icu_77::Hashtable", ptr, i8, i16, i32 }
%"class.icu_77::TransliterationRuleSet" = type { ptr, ptr, ptr, [257 x i32], i32 }
%"class.icu_77::UVector" = type { %"class.icu_77::UObject", i32, i32, ptr, ptr, ptr }
%"class.icu_77::UObject" = type { ptr }

; Function Attrs: inlinehint mustprogress nounwind uwtable
define linkonce_odr noundef i32 @_ZNK6icu_777UVector4sizeEv(ptr noundef nonnull align 8 dereferenceable(40) %0) #2 comdat align 2 {
  %2 = alloca ptr, align 8
  store ptr %0, ptr %2, align 8, !tbaa !27
  %3 = load ptr, ptr %2, align 8
  %4 = getelementptr inbounds nuw %"class.icu_77::UVector", ptr %3, i32 0, i32 1
  %5 = load i32, ptr %4, align 8, !tbaa !57
  ret i32 %5
}

; Function Attrs: mustprogress uwtable
define noundef signext i8 @_ZN6icu_779ParseData9isMatcherEi(ptr noundef nonnull align 8 dereferenceable(32) %0, i32 noundef %1) #1 align 2 {
  %3 = alloca i8, align 1
  %4 = alloca ptr, align 8
  %5 = alloca i32, align 4
  %6 = alloca i32, align 4
  %7 = alloca ptr, align 8
  %8 = alloca i32, align 4
  store ptr %0, ptr %4, align 8, !tbaa !23
  store i32 %1, ptr %5, align 4, !tbaa !14
  %9 = load ptr, ptr %4, align 8
  call void @llvm.lifetime.start.p0(i64 4, ptr %6) #11
  %10 = load i32, ptr %5, align 4, !tbaa !14
  %11 = getelementptr inbounds nuw %"class.icu_77::ParseData", ptr %9, i32 0, i32 1
  %12 = load ptr, ptr %11, align 8, !tbaa !33
  %13 = getelementptr inbounds nuw %"class.icu_77::TransliterationRuleData", ptr %12, i32 0, i32 5
  %14 = load i16, ptr %13, align 2, !tbaa !50
  %15 = zext i16 %14 to i32
  %16 = sub nsw i32 %10, %15
  store i32 %16, ptr %6, align 4, !tbaa !14
  %17 = load i32, ptr %6, align 4, !tbaa !14
  %18 = icmp sge i32 %17, 0
  br i1 %18, label %19, label %42

19:                                               ; preds = %2
  %20 = load i32, ptr %6, align 4, !tbaa !14
  %21 = getelementptr inbounds nuw %"class.icu_77::ParseData", ptr %9, i32 0, i32 2
  %22 = load ptr, ptr %21, align 8, !tbaa !36
  %23 = call noundef i32 @_ZNK6icu_777UVector4sizeEv(ptr noundef nonnull align 8 dereferenceable(40) %22)
  %24 = icmp slt i32 %20, %23
  br i1 %24, label %25, label %42

25:                                               ; preds = %19
  call void @llvm.lifetime.start.p0(i64 8, ptr %7) #11
  %26 = getelementptr inbounds nuw %"class.icu_77::ParseData", ptr %9, i32 0, i32 2
  %27 = load ptr, ptr %26, align 8, !tbaa !36
  %28 = load i32, ptr %6, align 4, !tbaa !14
  %29 = call noundef ptr @_ZNK6icu_777UVector9elementAtEi(ptr noundef nonnull align 8 dereferenceable(40) %27, i32 noundef %28)
  store ptr %29, ptr %7, align 8, !tbaa !48
  %30 = load ptr, ptr %7, align 8, !tbaa !48
  %31 = icmp ne ptr %30, null
  br i1 %31, label %32, label %39

32:                                               ; preds = %25
  %33 = load ptr, ptr %7, align 8, !tbaa !48
  %34 = load ptr, ptr %33, align 8, !tbaa !31
  %35 = getelementptr inbounds ptr, ptr %34, i64 4
  %36 = load ptr, ptr %35, align 8
  %37 = call noundef ptr %36(ptr noundef nonnull align 8 dereferenceable(8) %33)
  %38 = icmp ne ptr %37, null
  br label %39

39:                                               ; preds = %32, %25
  %40 = phi i1 [ false, %25 ], [ %38, %32 ]
  %41 = zext i1 %40 to i8
  store i8 %41, ptr %3, align 1
  store i32 1, ptr %8, align 4
  call void @llvm.lifetime.end.p0(i64 8, ptr %7) #11
  br label %43

42:                                               ; preds = %19, %2
  store i8 1, ptr %3, align 1
  store i32 1, ptr %8, align 4
  br label %43

43:                                               ; preds = %42, %39
  call void @llvm.lifetime.end.p0(i64 4, ptr %6) #11
  %44 = load i8, ptr %3, align 1
  ret i8 %44
}